target datalayout = "e-m:e-p270:32:32-p271:32:32-p272:64:64-i64:64-i128:128-f80:128-n8:16:32:64-S128"
target triple = "x86_64-pc-linux-gnu"

%struct.StringInfoData = type { ptr, i32, i32, i32 }

@.str.356 = private unnamed_addr constant [2 x i8] c"r\00", align 1
@.str.357 = private unnamed_addr constant [41 x i8] c"could not open file \22%s\22 for reading: %m\00", align 1

; Function Attrs: nounwind uwtable
define internal ptr @readfile(ptr noundef %0) #0 {
  %2 = alloca ptr, align 8
  %3 = alloca ptr, align 8
  %4 = alloca ptr, align 8
  %5 = alloca %struct.StringInfoData, align 8
  %6 = alloca i32, align 4
  %7 = alloca i32, align 4
  store ptr %0, ptr %2, align 8
  call void @llvm.lifetime.start.p0(i64 8, ptr %3) #10
  call void @llvm.lifetime.start.p0(i64 8, ptr %4) #10
  call void @llvm.lifetime.start.p0(i64 24, ptr %5) #10
  call void @llvm.lifetime.start.p0(i64 4, ptr %6) #10
  call void @llvm.lifetime.start.p0(i64 4, ptr %7) #10
  %8 = load ptr, ptr %2, align 8
  %9 = call noalias ptr @fopen(ptr noundef %8, ptr noundef @.str.356)
  store ptr %9, ptr %4, align 8
  %10 = icmp eq ptr %9, null
  br i1 %10, label %11, label %16

11:                                               ; preds = %1
  br label %12

12:                                               ; preds = %11
  %13 = load ptr, ptr %2, align 8
  call void (i32, i32, ptr, ...) @pg_log_generic(i32 noundef 4, i32 noundef 0, ptr noundef @.str.357, ptr noundef %13)
  call void @exit(i32 noundef 1) #12
  unreachable

14:                                               ; No predecessors!
  br label %15

15:                                               ; preds = %14
  br label %16

16:                                               ; preds = %15, %1
  call void @initStringInfo(ptr noundef %5)
  store i32 1024, ptr %6, align 4
  %17 = load i32, ptr %6, align 4
  %18 = sext i32 %17 to i64
  %19 = mul i64 %18, 8
  %20 = call ptr @pg_malloc(i64 noundef %19)
  store ptr %20, ptr %3, align 8
  store i32 0, ptr %7, align 4
  br label %21

21:                                               ; preds = %37, %16
  %22 = load ptr, ptr %4, align 8
  %23 = call zeroext i1 @pg_get_line_buf(ptr noundef %22, ptr noundef %5)
  br i1 %23, label %24, label %46

24:                                               ; preds = %21
  %25 = load i32, ptr %7, align 4
  %26 = load i32, ptr %6, align 4
  %27 = sub i32 %26, 1
  %28 = icmp sge i32 %25, %27
  br i1 %28, label %29, label %37

29:                                               ; preds = %24
  %30 = load i32, ptr %6, align 4
  %31 = mul i32 %30, 2
  store i32 %31, ptr %6, align 4
  %32 = load ptr, ptr %3, align 8
  %33 = load i32, ptr %6, align 4
  %34 = sext i32 %33 to i64
  %35 = mul i64 %34, 8
  %36 = call ptr @pg_realloc(ptr noundef %32, i64 noundef %35)
  store ptr %36, ptr %3, align 8
  br label %37

37:                                               ; preds = %29, %24
  %38 = getelementptr inbounds nuw %struct.StringInfoData, ptr %5, i32 0, i32 0
  %39 = load ptr, ptr %38, align 8
  %40 = call ptr @pg_strdup(ptr noundef %39)
  %41 = load ptr, ptr %3, align 8
  %42 = load i32, ptr %7, align 4
  %43 = add i32 %42, 1
  store i32 %43, ptr %7, align 4
  %44 = sext i32 %42 to i64
  %45 = getelementptr inbounds ptr, ptr %41, i64 %44
  store ptr %40, ptr %45, align 8
  br label %21, !llvm.loop !22

46:                                               ; preds = %21
  %47 = load ptr, ptr %3, align 8
  %48 = load i32, ptr %7, align 4
  %49 = sext i32 %48 to i64
  %50 = getelementptr inbounds ptr, ptr %47, i64 %49
  store ptr null, ptr %50, align 8
  %51 = getelementptr inbounds nuw %struct.StringInfoData, ptr %5, i32 0, i32 0
  %52 = load ptr, ptr %51, align 8
  call void @pfree(ptr noundef %52)
  %53 = load ptr, ptr %4, align 8
  %54 = call i32 @fclose(ptr noundef %53)
  %55 = load ptr, ptr %3, align 8
  call void @llvm.lifetime.end.p0(i64 4, ptr %7) #10
  call void @llvm.lifetime.end.p0(i64 4, ptr %6) #10
  call void @llvm.lifetime.end.p0(i64 24, ptr %5) #10
  call void @llvm.lifetime.end.p0(i64 8, ptr %4) #10
  call void @llvm.lifetime.end.p0(i64 8, ptr %3) #10
  ret ptr %55
}