; Function Attrs: nounwind uwtable
define internal fastcc ptr @readfile(ptr noundef %0) unnamed_addr #0 {
  %2 = alloca %struct.StringInfoData, align 8
  call void @llvm.lifetime.start.p0(i64 24, ptr nonnull %2) #19
  %3 = tail call noalias ptr @fopen(ptr noundef %0, ptr noundef nonnull @.str.356)
  %4 = icmp eq ptr %3, null
  br i1 %4, label %5, label %6

5:                                                ; preds = %1
  tail call void (i32, i32, ptr, ...) @pg_log_generic(i32 noundef 4, i32 noundef 0, ptr noundef nonnull @.str.357, ptr noundef %0) #19
  tail call void @exit(i32 noundef 1) #20
  unreachable

6:                                                ; preds = %1
  call void @initStringInfo(ptr noundef nonnull %2) #19
  %7 = call ptr @pg_malloc(i64 noundef 8192) #19
  %8 = call zeroext i1 @pg_get_line_buf(ptr noundef nonnull %3, ptr noundef nonnull %2) #19
  br i1 %8, label %.lr.ph, label %._crit_edge

.lr.ph:                                           ; preds = %6, %15
  %.020 = phi i32 [ %18, %15 ], [ 0, %6 ]
  %.01419 = phi i32 [ %.1, %15 ], [ 1024, %6 ]
  %.01518 = phi ptr [ %.116, %15 ], [ %7, %6 ]
  %9 = add i32 %.01419, -1
  %.not = icmp slt i32 %.020, %9
  br i1 %.not, label %15, label %10

10:                                               ; preds = %.lr.ph
  %11 = shl i32 %.01419, 1
  %12 = sext i32 %11 to i64
  %13 = shl nsw i64 %12, 3
  %14 = call ptr @pg_realloc(ptr noundef %.01518, i64 noundef %13) #19
  br label %15

15:                                               ; preds = %10, %.lr.ph
  %.116 = phi ptr [ %14, %10 ], [ %.01518, %.lr.ph ]
  %.1 = phi i32 [ %11, %10 ], [ %.01419, %.lr.ph ]
  %16 = load ptr, ptr %2, align 8
  %17 = call ptr @pg_strdup(ptr noundef %16) #19
  %18 = add i32 %.020, 1
  %19 = sext i32 %.020 to i64
  %20 = getelementptr inbounds ptr, ptr %.116, i64 %19
  store ptr %17, ptr %20, align 8
  %21 = call zeroext i1 @pg_get_line_buf(ptr noundef nonnull %3, ptr noundef nonnull %2) #19
  br i1 %21, label %.lr.ph, label %._crit_edge.loopexit, !llvm.loop !19

._crit_edge.loopexit:                             ; preds = %15
  %22 = sext i32 %18 to i64
  br label %._crit_edge

._crit_edge:                                      ; preds = %._crit_edge.loopexit, %6
  %.015.lcssa = phi ptr [ %7, %6 ], [ %.116, %._crit_edge.loopexit ]
  %.0.lcssa = phi i64 [ 0, %6 ], [ %22, %._crit_edge.loopexit ]
  %23 = getelementptr inbounds ptr, ptr %.015.lcssa, i64 %.0.lcssa
  store ptr null, ptr %23, align 8
  %24 = load ptr, ptr %2, align 8
  call void @pfree(ptr noundef %24) #19
  %25 = call i32 @fclose(ptr noundef nonnull %3)
  call void @llvm.lifetime.end.p0(i64 24, ptr nonnull %2) #19
  ret ptr %.015.lcssa
}